; Function Attrs: null_pointer_is_valid sspstrong uwtable
define internal i32 @dissect_ranap_BindingID(ptr noundef %0, i32 noundef %1, ptr noundef %2, ptr noundef %3, i32 noundef %4) #0 {
  %6 = alloca ptr, align 8
  call void @llvm.lifetime.start.p0(i64 8, ptr nonnull %6) #4
  store ptr null, ptr %6, align 8
  %7 = call i32 @dissect_per_octet_string(ptr noundef %0, i32 noundef %1, ptr noundef %2, ptr noundef %3, i32 noundef %4, i32 noundef 4, i32 noundef 4, i1 noundef zeroext false, ptr noundef nonnull %6)
  %8 = load ptr, ptr %6, align 8
  %9 = call zeroext i16 @tvb_get_ntohs(ptr noundef %8, i32 noundef 2)
  %10 = icmp eq i16 %9, 0
  br i1 %10, label %11, label %29

11:                                               ; preds = %5
  %12 = load ptr, ptr %6, align 8
  %13 = call zeroext i16 @tvb_get_ntohs(ptr noundef %12, i32 noundef 0)
  %14 = getelementptr i8, ptr %2, i64 16
  %.val = load ptr, ptr %14, align 8
  %15 = getelementptr inbounds nuw i8, ptr %.val, i64 408
  %16 = load ptr, ptr %15, align 8
  %17 = load i32, ptr @proto_ranap, align 4
  %18 = call ptr @p_get_proto_data(ptr noundef %16, ptr noundef %.val, i32 noundef %17, i32 noundef 0)
  %19 = icmp eq ptr %18, null
  br i1 %19, label %20, label %private_data_set_binding_id_port.exit

20:                                               ; preds = %11
  %21 = load ptr, ptr %15, align 8
  %22 = call noalias dereferenceable_or_null(12) ptr @wmem_alloc0(ptr noundef %21, i64 noundef 12) #5
  %23 = load ptr, ptr %15, align 8
  %24 = load i32, ptr @proto_ranap, align 4
  call void @p_add_proto_data(ptr noundef %23, ptr noundef %.val, i32 noundef %24, i32 noundef 0, ptr noundef %22)
  br label %private_data_set_binding_id_port.exit

private_data_set_binding_id_port.exit:            ; preds = %11, %20
  %.0.i.i = phi ptr [ %22, %20 ], [ %18, %11 ]
  %25 = getelementptr inbounds nuw i8, ptr %.0.i.i, i64 4
  store i16 %13, ptr %25, align 4
  %26 = getelementptr inbounds nuw i8, ptr %2, i64 24
  %27 = load ptr, ptr %26, align 8
  %28 = zext i16 %13 to i32
  call void (ptr, ptr, ...) @proto_item_append_text(ptr noundef %27, ptr noundef nonnull @.str.2483, i32 noundef %28)
  br label %29

29:                                               ; preds = %private_data_set_binding_id_port.exit, %5
  call void @llvm.lifetime.end.p0(i64 8, ptr nonnull %6) #4
  ret i32 %7
}